target datalayout = "e-m:e-p270:32:32-p271:32:32-p272:64:64-i64:64-i128:128-f80:128-n8:16:32:64-S128"
target triple = "x86_64-pc-linux-gnu"

; Function Attrs: alwaysinline nounwind uwtable
define internal void @interleave_10bit(ptr noundef %0, ptr noundef %1, ptr noundef %2, i32 noundef %3, i32 noundef %4, i32 noundef %5) #4 {
  %7 = alloca ptr, align 8
  %8 = alloca ptr, align 8
  %9 = alloca ptr, align 8
  %10 = alloca i32, align 4
  %11 = alloca i32, align 4
  %12 = alloca i32, align 4
  %13 = alloca i32, align 4
  store ptr %0, ptr %7, align 8, !tbaa !91
  store ptr %1, ptr %8, align 8, !tbaa !91
  store ptr %2, ptr %9, align 8, !tbaa !91
  store i32 %3, ptr %10, align 4, !tbaa !11
  store i32 %4, ptr %11, align 4, !tbaa !11
  store i32 %5, ptr %12, align 4, !tbaa !11
  call void @llvm.lifetime.start.p0(i64 4, ptr %13) #5
  store i32 0, ptr %13, align 4, !tbaa !11
  br label %14

14:                                               ; preds = %48, %6
  %15 = load i32, ptr %13, align 4, !tbaa !11
  %16 = load i32, ptr %10, align 4, !tbaa !11
  %17 = icmp slt i32 %15, %16
  br i1 %17, label %18, label %51

18:                                               ; preds = %14
  %19 = load ptr, ptr %8, align 8, !tbaa !91
  %20 = load i32, ptr %13, align 4, !tbaa !11
  %21 = sext i32 %20 to i64
  %22 = getelementptr inbounds i32, ptr %19, i64 %21
  %23 = load i32, ptr %22, align 4, !tbaa !11
  %24 = load i32, ptr %11, align 4, !tbaa !11
  %25 = add i32 %23, %24
  %26 = load i32, ptr %12, align 4, !tbaa !11
  %27 = ashr i32 %25, %26
  %28 = load ptr, ptr %7, align 8, !tbaa !91
  %29 = load i32, ptr %13, align 4, !tbaa !11
  %30 = mul nsw i32 2, %29
  %31 = sext i32 %30 to i64
  %32 = getelementptr inbounds i32, ptr %28, i64 %31
  store i32 %27, ptr %32, align 4, !tbaa !11
  %33 = load ptr, ptr %9, align 8, !tbaa !91
  %34 = load i32, ptr %13, align 4, !tbaa !11
  %35 = sext i32 %34 to i64
  %36 = getelementptr inbounds i32, ptr %33, i64 %35
  %37 = load i32, ptr %36, align 4, !tbaa !11
  %38 = load i32, ptr %11, align 4, !tbaa !11
  %39 = add i32 %37, %38
  %40 = load i32, ptr %12, align 4, !tbaa !11
  %41 = ashr i32 %39, %40
  %42 = load ptr, ptr %7, align 8, !tbaa !91
  %43 = load i32, ptr %13, align 4, !tbaa !11
  %44 = mul nsw i32 2, %43
  %45 = add nsw i32 %44, 1
  %46 = sext i32 %45 to i64
  %47 = getelementptr inbounds i32, ptr %42, i64 %46
  store i32 %41, ptr %47, align 4, !tbaa !11
  br label %48

48:                                               ; preds = %18
  %49 = load i32, ptr %13, align 4, !tbaa !11
  %50 = add nsw i32 %49, 1
  store i32 %50, ptr %13, align 4, !tbaa !11
  br label %14, !llvm.loop !124

51:                                               ; preds = %14
  call void @llvm.lifetime.end.p0(i64 4, ptr %13) #5
  ret void
}

; Function Attrs: alwaysinline nounwind willreturn memory(none) uwtable
define internal i32 @av_clip_c(i32 noundef %0, i32 noundef %1, i32 noundef %2) #3 {
  %4 = alloca i32, align 4
  %5 = alloca i32, align 4
  %6 = alloca i32, align 4
  %7 = alloca i32, align 4
  store i32 %0, ptr %5, align 4, !tbaa !11
  store i32 %1, ptr %6, align 4, !tbaa !11
  store i32 %2, ptr %7, align 4, !tbaa !11
  %8 = load i32, ptr %5, align 4, !tbaa !11
  %9 = load i32, ptr %6, align 4, !tbaa !11
  %10 = icmp slt i32 %8, %9
  br i1 %10, label %11, label %13

11:                                               ; preds = %3
  %12 = load i32, ptr %6, align 4, !tbaa !11
  store i32 %12, ptr %4, align 4
  br label %21

13:                                               ; preds = %3
  %14 = load i32, ptr %5, align 4, !tbaa !11
  %15 = load i32, ptr %7, align 4, !tbaa !11
  %16 = icmp sgt i32 %14, %15
  br i1 %16, label %17, label %19

17:                                               ; preds = %13
  %18 = load i32, ptr %7, align 4, !tbaa !11
  store i32 %18, ptr %4, align 4
  br label %21

19:                                               ; preds = %13
  %20 = load i32, ptr %5, align 4, !tbaa !11
  store i32 %20, ptr %4, align 4
  br label %21

21:                                               ; preds = %19, %17, %11
  %22 = load i32, ptr %4, align 4
  ret i32 %22
}

; Function Attrs: nounwind uwtable
define internal void @horizontal_compose_fidelityi_10bit(ptr noundef %0, ptr noundef %1, i32 noundef %2) #0 {
  %4 = alloca ptr, align 8
  %5 = alloca ptr, align 8
  %6 = alloca i32, align 4
  %7 = alloca i32, align 4
  %8 = alloca i32, align 4
  %9 = alloca i32, align 4
  %10 = alloca [8 x i32], align 16
  %11 = alloca ptr, align 8
  %12 = alloca ptr, align 8
  store ptr %0, ptr %4, align 8, !tbaa !44
  store ptr %1, ptr %5, align 8, !tbaa !44
  store i32 %2, ptr %6, align 4, !tbaa !11
  call void @llvm.lifetime.start.p0(i64 4, ptr %7) #5
  %13 = load i32, ptr %6, align 4, !tbaa !11
  %14 = ashr i32 %13, 1
  store i32 %14, ptr %7, align 4, !tbaa !11
  call void @llvm.lifetime.start.p0(i64 4, ptr %8) #5
  call void @llvm.lifetime.start.p0(i64 4, ptr %9) #5
  call void @llvm.lifetime.start.p0(i64 32, ptr %10) #5
  call void @llvm.lifetime.start.p0(i64 8, ptr %11) #5
  %15 = load ptr, ptr %4, align 8, !tbaa !44
  store ptr %15, ptr %11, align 8, !tbaa !91
  call void @llvm.lifetime.start.p0(i64 8, ptr %12) #5
  %16 = load ptr, ptr %5, align 8, !tbaa !44
  store ptr %16, ptr %12, align 8, !tbaa !91
  store i32 0, ptr %9, align 4, !tbaa !11
  br label %17

17:                                               ; preds = %85, %3
  %18 = load i32, ptr %9, align 4, !tbaa !11
  %19 = load i32, ptr %7, align 4, !tbaa !11
  %20 = icmp slt i32 %18, %19
  br i1 %20, label %21, label %88

21:                                               ; preds = %17
  store i32 0, ptr %8, align 4, !tbaa !11
  br label %22

22:                                               ; preds = %40, %21
  %23 = load i32, ptr %8, align 4, !tbaa !11
  %24 = icmp slt i32 %23, 8
  br i1 %24, label %25, label %43

25:                                               ; preds = %22
  %26 = load ptr, ptr %11, align 8, !tbaa !91
  %27 = load i32, ptr %9, align 4, !tbaa !11
  %28 = sub nsw i32 %27, 3
  %29 = load i32, ptr %8, align 4, !tbaa !11
  %30 = add nsw i32 %28, %29
  %31 = load i32, ptr %7, align 4, !tbaa !11
  %32 = sub nsw i32 %31, 1
  %33 = call i32 @av_clip_c(i32 noundef %30, i32 noundef 0, i32 noundef %32) #6
  %34 = sext i32 %33 to i64
  %35 = getelementptr inbounds i32, ptr %26, i64 %34
  %36 = load i32, ptr %35, align 4, !tbaa !11
  %37 = load i32, ptr %8, align 4, !tbaa !11
  %38 = sext i32 %37 to i64
  %39 = getelementptr inbounds [8 x i32], ptr %10, i64 0, i64 %38
  store i32 %36, ptr %39, align 4, !tbaa !11
  br label %40

40:                                               ; preds = %25
  %41 = load i32, ptr %8, align 4, !tbaa !11
  %42 = add nsw i32 %41, 1
  store i32 %42, ptr %8, align 4, !tbaa !11
  br label %22, !llvm.loop !112

43:                                               ; preds = %22
  %44 = load ptr, ptr %11, align 8, !tbaa !91
  %45 = load i32, ptr %9, align 4, !tbaa !11
  %46 = load i32, ptr %7, align 4, !tbaa !11
  %47 = add nsw i32 %45, %46
  %48 = sext i32 %47 to i64
  %49 = getelementptr inbounds i32, ptr %44, i64 %48
  %50 = load i32, ptr %49, align 4, !tbaa !11
  %51 = getelementptr inbounds [8 x i32], ptr %10, i64 0, i64 0
  %52 = load i32, ptr %51, align 16, !tbaa !11
  %53 = getelementptr inbounds [8 x i32], ptr %10, i64 0, i64 7
  %54 = load i32, ptr %53, align 4, !tbaa !11
  %55 = add i32 %52, %54
  %56 = mul i32 -2, %55
  %57 = getelementptr inbounds [8 x i32], ptr %10, i64 0, i64 1
  %58 = load i32, ptr %57, align 4, !tbaa !11
  %59 = getelementptr inbounds [8 x i32], ptr %10, i64 0, i64 6
  %60 = load i32, ptr %59, align 8, !tbaa !11
  %61 = add i32 %58, %60
  %62 = mul i32 10, %61
  %63 = add i32 %56, %62
  %64 = getelementptr inbounds [8 x i32], ptr %10, i64 0, i64 2
  %65 = load i32, ptr %64, align 8, !tbaa !11
  %66 = getelementptr inbounds [8 x i32], ptr %10, i64 0, i64 5
  %67 = load i32, ptr %66, align 4, !tbaa !11
  %68 = add i32 %65, %67
  %69 = mul i32 25, %68
  %70 = sub i32 %63, %69
  %71 = getelementptr inbounds [8 x i32], ptr %10, i64 0, i64 3
  %72 = load i32, ptr %71, align 4, !tbaa !11
  %73 = getelementptr inbounds [8 x i32], ptr %10, i64 0, i64 4
  %74 = load i32, ptr %73, align 16, !tbaa !11
  %75 = add i32 %72, %74
  %76 = mul i32 81, %75
  %77 = add i32 %70, %76
  %78 = add i32 %77, 128
  %79 = ashr i32 %78, 8
  %80 = add i32 %50, %79
  %81 = load ptr, ptr %12, align 8, !tbaa !91
  %82 = load i32, ptr %9, align 4, !tbaa !11
  %83 = sext i32 %82 to i64
  %84 = getelementptr inbounds i32, ptr %81, i64 %83
  store i32 %80, ptr %84, align 4, !tbaa !11
  br label %85

85:                                               ; preds = %43
  %86 = load i32, ptr %9, align 4, !tbaa !11
  %87 = add nsw i32 %86, 1
  store i32 %87, ptr %9, align 4, !tbaa !11
  br label %17, !llvm.loop !113

88:                                               ; preds = %17
  store i32 0, ptr %9, align 4, !tbaa !11
  br label %89

89:                                               ; preds = %157, %88
  %90 = load i32, ptr %9, align 4, !tbaa !11
  %91 = load i32, ptr %7, align 4, !tbaa !11
  %92 = icmp slt i32 %90, %91
  br i1 %92, label %93, label %160

93:                                               ; preds = %89
  store i32 0, ptr %8, align 4, !tbaa !11
  br label %94

94:                                               ; preds = %112, %93
  %95 = load i32, ptr %8, align 4, !tbaa !11
  %96 = icmp slt i32 %95, 8
  br i1 %96, label %97, label %115

97:                                               ; preds = %94
  %98 = load ptr, ptr %12, align 8, !tbaa !91
  %99 = load i32, ptr %9, align 4, !tbaa !11
  %100 = sub nsw i32 %99, 4
  %101 = load i32, ptr %8, align 4, !tbaa !11
  %102 = add nsw i32 %100, %101
  %103 = load i32, ptr %7, align 4, !tbaa !11
  %104 = sub nsw i32 %103, 1
  %105 = call i32 @av_clip_c(i32 noundef %102, i32 noundef 0, i32 noundef %104) #6
  %106 = sext i32 %105 to i64
  %107 = getelementptr inbounds i32, ptr %98, i64 %106
  %108 = load i32, ptr %107, align 4, !tbaa !11
  %109 = load i32, ptr %8, align 4, !tbaa !11
  %110 = sext i32 %109 to i64
  %111 = getelementptr inbounds [8 x i32], ptr %10, i64 0, i64 %110
  store i32 %108, ptr %111, align 4, !tbaa !11
  br label %112

112:                                              ; preds = %97
  %113 = load i32, ptr %8, align 4, !tbaa !11
  %114 = add nsw i32 %113, 1
  store i32 %114, ptr %8, align 4, !tbaa !11
  br label %94, !llvm.loop !114

115:                                              ; preds = %94
  %116 = load ptr, ptr %11, align 8, !tbaa !91
  %117 = load i32, ptr %9, align 4, !tbaa !11
  %118 = sext i32 %117 to i64
  %119 = getelementptr inbounds i32, ptr %116, i64 %118
  %120 = load i32, ptr %119, align 4, !tbaa !11
  %121 = getelementptr inbounds [8 x i32], ptr %10, i64 0, i64 0
  %122 = load i32, ptr %121, align 16, !tbaa !11
  %123 = getelementptr inbounds [8 x i32], ptr %10, i64 0, i64 7
  %124 = load i32, ptr %123, align 4, !tbaa !11
  %125 = add i32 %122, %124
  %126 = mul i32 -8, %125
  %127 = getelementptr inbounds [8 x i32], ptr %10, i64 0, i64 1
  %128 = load i32, ptr %127, align 4, !tbaa !11
  %129 = getelementptr inbounds [8 x i32], ptr %10, i64 0, i64 6
  %130 = load i32, ptr %129, align 8, !tbaa !11
  %131 = add i32 %128, %130
  %132 = mul i32 21, %131
  %133 = add i32 %126, %132
  %134 = getelementptr inbounds [8 x i32], ptr %10, i64 0, i64 2
  %135 = load i32, ptr %134, align 8, !tbaa !11
  %136 = getelementptr inbounds [8 x i32], ptr %10, i64 0, i64 5
  %137 = load i32, ptr %136, align 4, !tbaa !11
  %138 = add i32 %135, %137
  %139 = mul i32 46, %138
  %140 = sub i32 %133, %139
  %141 = getelementptr inbounds [8 x i32], ptr %10, i64 0, i64 3
  %142 = load i32, ptr %141, align 4, !tbaa !11
  %143 = getelementptr inbounds [8 x i32], ptr %10, i64 0, i64 4
  %144 = load i32, ptr %143, align 16, !tbaa !11
  %145 = add i32 %142, %144
  %146 = mul i32 161, %145
  %147 = add i32 %140, %146
  %148 = add i32 %147, 128
  %149 = ashr i32 %148, 8
  %150 = sub i32 %120, %149
  %151 = load ptr, ptr %12, align 8, !tbaa !91
  %152 = load i32, ptr %9, align 4, !tbaa !11
  %153 = load i32, ptr %7, align 4, !tbaa !11
  %154 = add nsw i32 %152, %153
  %155 = sext i32 %154 to i64
  %156 = getelementptr inbounds i32, ptr %151, i64 %155
  store i32 %150, ptr %156, align 4, !tbaa !11
  br label %157

157:                                              ; preds = %115
  %158 = load i32, ptr %9, align 4, !tbaa !11
  %159 = add nsw i32 %158, 1
  store i32 %159, ptr %9, align 4, !tbaa !11
  br label %89, !llvm.loop !115

160:                                              ; preds = %89
  %161 = load ptr, ptr %11, align 8, !tbaa !91
  %162 = load ptr, ptr %12, align 8, !tbaa !91
  %163 = load i32, ptr %7, align 4, !tbaa !11
  %164 = sext i32 %163 to i64
  %165 = getelementptr inbounds i32, ptr %162, i64 %164
  %166 = load ptr, ptr %12, align 8, !tbaa !91
  %167 = load i32, ptr %7, align 4, !tbaa !11
  call void @interleave_10bit(ptr noundef %161, ptr noundef %165, ptr noundef %166, i32 noundef %167, i32 noundef 0, i32 noundef 0)
  call void @llvm.lifetime.end.p0(i64 8, ptr %12) #5
  call void @llvm.lifetime.end.p0(i64 8, ptr %11) #5
  call void @llvm.lifetime.end.p0(i64 32, ptr %10) #5
  call void @llvm.lifetime.end.p0(i64 4, ptr %9) #5
  call void @llvm.lifetime.end.p0(i64 4, ptr %8) #5
  call void @llvm.lifetime.end.p0(i64 4, ptr %7) #5
  ret void
}